; ModuleID = 'bench/darktable/original/wblists.ll'
source_filename = "bench/darktable/original/wblists.ll"
target datalayout = "e-m:e-p270:32:32-p271:32:32-p272:64:64-i64:64-i128:128-f80:128-n8:16:32:64-S128"
target triple = "x86_64-pc-linux-gnu"

%class.libraw_static_table_t = type <{ ptr, i32, [4 x i8] }>

@_ZN6LibRaw22tagtype_dataunit_bytesE = local_unnamed_addr global %class.libraw_static_table_t <{ ptr @_ZL23_tagtype_dataunit_bytes, i32 20, [4 x i8] zeroinitializer }>, align 8
@_ZL23_tagtype_dataunit_bytes = internal constant [20 x i32] [i32 1, i32 1, i32 1, i32 2, i32 4, i32 8, i32 1, i32 1, i32 2, i32 4, i32 8, i32 4, i32 8, i32 4, i32 2, i32 8, i32 8, i32 8, i32 8, i32 8], align 16
@_ZN6LibRaw13Canon_wbi2stdE = local_unnamed_addr global %class.libraw_static_table_t <{ ptr @_ZL14_Canon_wbi2std, i32 24, [4 x i8] zeroinitializer }>, align 8
@_ZL14_Canon_wbi2std = internal constant [24 x i32] [i32 82, i32 1, i32 10, i32 3, i32 2, i32 4, i32 83, i32 120, i32 11, i32 254, i32 96, i32 97, i32 98, i32 0, i32 66, i32 90, i32 91, i32 65, i32 92, i32 93, i32 99, i32 100, i32 0, i32 85], align 16
@_ZN6LibRaw41Canon_KeyIsZero_Len2048_linenums_2_StdWBiE = local_unnamed_addr global %class.libraw_static_table_t <{ ptr @_ZL42_Canon_KeyIsZero_Len2048_linenums_2_StdWBi, i32 8, [4 x i8] zeroinitializer }>, align 8
@_ZL42_Canon_KeyIsZero_Len2048_linenums_2_StdWBi = internal constant [8 x i32] [i32 90, i32 91, i32 1, i32 10, i32 3, i32 2, i32 0, i32 4], align 16
@_ZN6LibRaw43Canon_KeyIs0x0410_Len3072_linenums_2_StdWBiE = local_unnamed_addr global %class.libraw_static_table_t <{ ptr @_ZL44_Canon_KeyIs0x0410_Len3072_linenums_2_StdWBi, i32 11, [4 x i8] zeroinitializer }>, align 8
@_ZL44_Canon_KeyIs0x0410_Len3072_linenums_2_StdWBi = internal constant [11 x i32] [i32 90, i32 91, i32 1, i32 10, i32 3, i32 2, i32 66, i32 0, i32 65, i32 0, i32 4], align 16
@_ZN6LibRaw43Canon_KeyIs0x0410_Len2048_linenums_2_StdWBiE = local_unnamed_addr global %class.libraw_static_table_t <{ ptr @_ZL44_Canon_KeyIs0x0410_Len2048_linenums_2_StdWBi, i32 11, [4 x i8] zeroinitializer }>, align 8
@_ZL44_Canon_KeyIs0x0410_Len2048_linenums_2_StdWBi = internal constant [11 x i32] [i32 90, i32 91, i32 1, i32 10, i32 3, i32 2, i32 0, i32 4, i32 0, i32 0, i32 0], align 16
@_ZN6LibRaw26Canon_G9_linenums_2_StdWBiE = local_unnamed_addr global %class.libraw_static_table_t <{ ptr @_ZL27_Canon_G9_linenums_2_StdWBi, i32 10, [4 x i8] zeroinitializer }>, align 8
@_ZL27_Canon_G9_linenums_2_StdWBi = internal constant [10 x i32] [i32 82, i32 1, i32 10, i32 3, i32 2, i32 66, i32 4, i32 65, i32 90, i32 91], align 16
@_ZN6LibRaw27Canon_D30_linenums_2_StdWBiE = local_unnamed_addr global %class.libraw_static_table_t <{ ptr @_ZL28_Canon_D30_linenums_2_StdWBi, i32 6, [4 x i8] zeroinitializer }>, align 8
@_ZL28_Canon_D30_linenums_2_StdWBi = internal constant [6 x i32] [i32 1, i32 10, i32 3, i32 2, i32 4, i32 83], align 16
@_ZN6LibRaw13Fuji_wb_list1E = local_unnamed_addr global %class.libraw_static_table_t <{ ptr @_ZL14_Fuji_wb_list1, i32 6, [4 x i8] zeroinitializer }>, align 8
@_ZL14_Fuji_wb_list1 = internal constant [6 x i32] [i32 9, i32 11, i32 12, i32 13, i32 14, i32 3], align 16
@_ZN6LibRaw9FujiCCT_KE = local_unnamed_addr global %class.libraw_static_table_t <{ ptr @_ZL10_FujiCCT_K, i32 31, [4 x i8] zeroinitializer }>, align 8
@_ZL10_FujiCCT_K = internal constant [31 x i32] [i32 2500, i32 2550, i32 2650, i32 2700, i32 2800, i32 2850, i32 2950, i32 3000, i32 3100, i32 3200, i32 3300, i32 3400, i32 3600, i32 3700, i32 3800, i32 4000, i32 4200, i32 4300, i32 4500, i32 4800, i32 5000, i32 5300, i32 5600, i32 5900, i32 6300, i32 6700, i32 7100, i32 7700, i32 8300, i32 9100, i32 10000], align 16
@_ZN6LibRaw13Fuji_wb_list2E = local_unnamed_addr global %class.libraw_static_table_t <{ ptr @_ZL14_Fuji_wb_list2, i32 22, [4 x i8] zeroinitializer }>, align 8
@_ZL14_Fuji_wb_list2 = internal constant [22 x i32] [i32 82, i32 0, i32 83, i32 6, i32 9, i32 1, i32 11, i32 8, i32 12, i32 10, i32 13, i32 11, i32 14, i32 12, i32 3, i32 2, i32 65, i32 35, i32 17, i32 82, i32 21, i32 83], align 16
@_ZN6LibRaw15Pentax_wb_list1E = local_unnamed_addr global %class.libraw_static_table_t <{ ptr @_ZL16_Pentax_wb_list1, i32 8, [4 x i8] zeroinitializer }>, align 8
@_ZL16_Pentax_wb_list1 = internal constant [8 x i32] [i32 1, i32 11, i32 10, i32 3, i32 12, i32 13, i32 14, i32 4], align 16
@_ZN6LibRaw15Pentax_wb_list2E = local_unnamed_addr global %class.libraw_static_table_t <{ ptr @_ZL16_Pentax_wb_list2, i32 9, [4 x i8] zeroinitializer }>, align 8
@_ZL16_Pentax_wb_list2 = internal constant [9 x i32] [i32 1, i32 11, i32 10, i32 3, i32 12, i32 13, i32 14, i32 4, i32 16], align 16
@_ZN6LibRaw12Oly_wb_list1E = local_unnamed_addr global %class.libraw_static_table_t <{ ptr @_ZL13_Oly_wb_list1, i32 9, [4 x i8] zeroinitializer }>, align 8
@_ZL13_Oly_wb_list1 = internal constant [9 x i32] [i32 11, i32 10, i32 9, i32 3, i32 64, i32 12, i32 13, i32 14, i32 15], align 16
@_ZN6LibRaw12Oly_wb_list2E = local_unnamed_addr global %class.libraw_static_table_t <{ ptr @_ZL13_Oly_wb_list2, i32 34, [4 x i8] zeroinitializer }>, align 8
@_ZL13_Oly_wb_list2 = internal constant [34 x i32] [i32 82, i32 0, i32 3, i32 3000, i32 256, i32 3300, i32 256, i32 3600, i32 256, i32 3900, i32 14, i32 4000, i32 256, i32 4300, i32 12, i32 4500, i32 256, i32 4800, i32 9, i32 5300, i32 10, i32 6000, i32 13, i32 6600, i32 11, i32 7500, i32 90, i32 0, i32 91, i32 0, i32 92, i32 0, i32 93, i32 0], align 16
@_ZN6LibRaw16Sony_SRF_wb_listE = local_unnamed_addr global %class.libraw_static_table_t <{ ptr @_ZL17_Sony_SRF_wb_list, i32 5, [4 x i8] zeroinitializer }>, align 8
@_ZL17_Sony_SRF_wb_list = internal constant [5 x i32] [i32 1, i32 10, i32 2, i32 3, i32 4], align 16
@_ZN6LibRaw16Sony_SR2_wb_listE = local_unnamed_addr global %class.libraw_static_table_t <{ ptr @_ZL17_Sony_SR2_wb_list, i32 7, [4 x i8] zeroinitializer }>, align 8
@_ZL17_Sony_SR2_wb_list = internal constant [7 x i32] [i32 1, i32 10, i32 3, i32 4, i32 4500, i32 0, i32 2], align 16
@_ZN6LibRaw17Sony_SR2_wb_list1E = local_unnamed_addr global %class.libraw_static_table_t <{ ptr @_ZL18_Sony_SR2_wb_list1, i32 14, [4 x i8] zeroinitializer }>, align 8
@_ZL18_Sony_SR2_wb_list1 = internal constant [14 x i32] [i32 1, i32 10, i32 3, i32 4, i32 4500, i32 11, i32 14, i32 13, i32 12, i32 16, i32 8500, i32 6000, i32 3200, i32 2500], align 16
@llvm.global_ctors = appending global [0 x { i32, ptr, ptr }] zeroinitializer

; Function Attrs: mustprogress nofree norecurse nosync nounwind willreturn memory(none) uwtable
define noundef i32 @_Z29libraw_tagtype_dataunit_bytesi(i32 noundef %0) local_unnamed_addr #0 {
  %2 = icmp ult i32 %0, 20
  %3 = select i1 %2, i32 %0, i32 0
  %4 = zext nneg i32 %3 to i64
  %5 = getelementptr inbounds nuw [20 x i32], ptr @_ZL23_tagtype_dataunit_bytes, i64 0, i64 %4
  %6 = load i32, ptr %5, align 4, !tbaa !6
  ret i32 %6
}


!llvm.module.flags = !{!0, !1, !2, !3, !4, !5}

!0 = !{i32 7, !"Dwarf Version", i32 5}
!1 = !{i32 2, !"Debug Info Version", i32 3}
!2 = !{i32 1, !"wchar_size", i32 4}
!3 = !{i32 8, !"PIC Level", i32 2}
!4 = !{i32 7, !"uwtable", i32 2}
!5 = !{i32 7, !"debug-info-assignment-tracking", i1 true}
!6 = !{!7, !7, i64 0}
!7 = !{!"int", !8, i64 0}
!8 = !{!"omnipotent char", !9, i64 0}
!9 = !{!"Simple C++ TBAA"}
